target datalayout = "e-m:e-p270:32:32-p271:32:32-p272:64:64-i64:64-i128:128-f80:128-n8:16:32:64-S128"
target triple = "x86_64-pc-linux-gnu"

%struct.fdt_header = type { i32, i32, i32, i32, i32, i32, i32, i32, i32, i32 }

; Function Attrs: inlinehint nounwind uwtable
define internal i32 @fdt32_ld(ptr noundef %0) #3 {
  %2 = alloca ptr, align 8
  %3 = alloca ptr, align 8
  store ptr %0, ptr %2, align 8, !tbaa !9
  call void @llvm.lifetime.start.p0(i64 8, ptr %3) #6
  %4 = load ptr, ptr %2, align 8, !tbaa !9
  store ptr %4, ptr %3, align 8, !tbaa !13
  %5 = load ptr, ptr %3, align 8, !tbaa !13
  %6 = getelementptr inbounds i8, ptr %5, i64 0
  %7 = load i8, ptr %6, align 1, !tbaa !15
  %8 = zext i8 %7 to i32
  %9 = shl i32 %8, 24
  %10 = load ptr, ptr %3, align 8, !tbaa !13
  %11 = getelementptr inbounds i8, ptr %10, i64 1
  %12 = load i8, ptr %11, align 1, !tbaa !15
  %13 = zext i8 %12 to i32
  %14 = shl i32 %13, 16
  %15 = or i32 %9, %14
  %16 = load ptr, ptr %3, align 8, !tbaa !13
  %17 = getelementptr inbounds i8, ptr %16, i64 2
  %18 = load i8, ptr %17, align 1, !tbaa !15
  %19 = zext i8 %18 to i32
  %20 = shl i32 %19, 8
  %21 = or i32 %15, %20
  %22 = load ptr, ptr %3, align 8, !tbaa !13
  %23 = getelementptr inbounds i8, ptr %22, i64 3
  %24 = load i8, ptr %23, align 1, !tbaa !15
  %25 = zext i8 %24 to i32
  %26 = or i32 %21, %25
  call void @llvm.lifetime.end.p0(i64 8, ptr %3) #6
  ret i32 %26
}

; Function Attrs: nounwind uwtable
define ptr @fdt_get_string(ptr noundef %0, i32 noundef %1, ptr noundef %2) #0 {
  %4 = alloca ptr, align 8
  %5 = alloca ptr, align 8
  %6 = alloca i32, align 4
  %7 = alloca ptr, align 8
  %8 = alloca i32, align 4
  %9 = alloca i32, align 4
  %10 = alloca i64, align 8
  %11 = alloca i32, align 4
  %12 = alloca ptr, align 8
  %13 = alloca ptr, align 8
  %14 = alloca i32, align 4
  store ptr %0, ptr %5, align 8, !tbaa !3
  store i32 %1, ptr %6, align 4, !tbaa !7
  store ptr %2, ptr %7, align 8, !tbaa !9
  call void @llvm.lifetime.start.p0(i64 4, ptr %8) #6
  %15 = load ptr, ptr %5, align 8, !tbaa !3
  %16 = call i32 @fdt_ro_probe_(ptr noundef %15)
  store i32 %16, ptr %8, align 4, !tbaa !7
  call void @llvm.lifetime.start.p0(i64 4, ptr %9) #6
  %17 = load i32, ptr %6, align 4, !tbaa !7
  %18 = load ptr, ptr %5, align 8, !tbaa !3
  %19 = getelementptr inbounds nuw %struct.fdt_header, ptr %18, i32 0, i32 3
  %20 = call i32 @fdt32_ld(ptr noundef %19)
  %21 = add i32 %17, %20
  store i32 %21, ptr %9, align 4, !tbaa !7
  call void @llvm.lifetime.start.p0(i64 8, ptr %10) #6
  call void @llvm.lifetime.start.p0(i64 4, ptr %11) #6
  call void @llvm.lifetime.start.p0(i64 8, ptr %12) #6
  call void @llvm.lifetime.start.p0(i64 8, ptr %13) #6
  %22 = load i32, ptr %8, align 4, !tbaa !7
  store i32 %22, ptr %11, align 4, !tbaa !7
  %23 = load i32, ptr %8, align 4, !tbaa !7
  %24 = icmp slt i32 %23, 0
  br i1 %24, label %25, label %26

25:                                               ; preds = %3
  br label %127

26:                                               ; preds = %3
  store i32 -4, ptr %11, align 4, !tbaa !7
  %27 = load i32, ptr %9, align 4, !tbaa !7
  %28 = load i32, ptr %8, align 4, !tbaa !7
  %29 = icmp uge i32 %27, %28
  br i1 %29, label %30, label %31

30:                                               ; preds = %26
  br label %127

31:                                               ; preds = %26
  %32 = load i32, ptr %8, align 4, !tbaa !7
  %33 = load i32, ptr %9, align 4, !tbaa !7
  %34 = sub i32 %32, %33
  %35 = zext i32 %34 to i64
  store i64 %35, ptr %10, align 8, !tbaa !11
  %36 = load ptr, ptr %5, align 8, !tbaa !3
  %37 = getelementptr inbounds nuw %struct.fdt_header, ptr %36, i32 0, i32 0
  %38 = call i32 @fdt32_ld(ptr noundef %37)
  %39 = icmp eq i32 %38, -804389139
  br i1 %39, label %40, label %74

40:                                               ; preds = %31
  %41 = load i32, ptr %6, align 4, !tbaa !7
  %42 = icmp slt i32 %41, 0
  br i1 %42, label %43, label %44

43:                                               ; preds = %40
  br label %127

44:                                               ; preds = %40
  %45 = load ptr, ptr %5, align 8, !tbaa !3
  %46 = getelementptr inbounds nuw %struct.fdt_header, ptr %45, i32 0, i32 5
  %47 = call i32 @fdt32_ld(ptr noundef %46)
  %48 = icmp uge i32 %47, 17
  br i1 %48, label %49, label %73

49:                                               ; preds = %44
  %50 = load i32, ptr %6, align 4, !tbaa !7
  %51 = load ptr, ptr %5, align 8, !tbaa !3
  %52 = getelementptr inbounds nuw %struct.fdt_header, ptr %51, i32 0, i32 8
  %53 = call i32 @fdt32_ld(ptr noundef %52)
  %54 = icmp uge i32 %50, %53
  br i1 %54, label %55, label %56

55:                                               ; preds = %49
  br label %127

56:                                               ; preds = %49
  %57 = load ptr, ptr %5, align 8, !tbaa !3
  %58 = getelementptr inbounds nuw %struct.fdt_header, ptr %57, i32 0, i32 8
  %59 = call i32 @fdt32_ld(ptr noundef %58)
  %60 = load i32, ptr %6, align 4, !tbaa !7
  %61 = sub i32 %59, %60
  %62 = zext i32 %61 to i64
  %63 = load i64, ptr %10, align 8, !tbaa !11
  %64 = icmp ult i64 %62, %63
  br i1 %64, label %65, label %72

65:                                               ; preds = %56
  %66 = load ptr, ptr %5, align 8, !tbaa !3
  %67 = getelementptr inbounds nuw %struct.fdt_header, ptr %66, i32 0, i32 8
  %68 = call i32 @fdt32_ld(ptr noundef %67)
  %69 = load i32, ptr %6, align 4, !tbaa !7
  %70 = sub i32 %68, %69
  %71 = zext i32 %70 to i64
  store i64 %71, ptr %10, align 8, !tbaa !11
  br label %72

72:                                               ; preds = %65, %56
  br label %73

73:                                               ; preds = %72, %44
  br label %103

74:                                               ; preds = %31
  %75 = load ptr, ptr %5, align 8, !tbaa !3
  %76 = getelementptr inbounds nuw %struct.fdt_header, ptr %75, i32 0, i32 0
  %77 = call i32 @fdt32_ld(ptr noundef %76)
  %78 = icmp eq i32 %77, 804389138
  br i1 %78, label %79, label %101

79:                                               ; preds = %74
  %80 = load i32, ptr %6, align 4, !tbaa !7
  %81 = icmp sge i32 %80, 0
  br i1 %81, label %89, label %82

82:                                               ; preds = %79
  %83 = load i32, ptr %6, align 4, !tbaa !7
  %84 = load ptr, ptr %5, align 8, !tbaa !3
  %85 = getelementptr inbounds nuw %struct.fdt_header, ptr %84, i32 0, i32 8
  %86 = call i32 @fdt32_ld(ptr noundef %85)
  %87 = sub i32 0, %86
  %88 = icmp ult i32 %83, %87
  br i1 %88, label %89, label %90

89:                                               ; preds = %82, %79
  br label %127

90:                                               ; preds = %82
  %91 = load i32, ptr %6, align 4, !tbaa !7
  %92 = sub nsw i32 0, %91
  %93 = sext i32 %92 to i64
  %94 = load i64, ptr %10, align 8, !tbaa !11
  %95 = icmp ult i64 %93, %94
  br i1 %95, label %96, label %100

96:                                               ; preds = %90
  %97 = load i32, ptr %6, align 4, !tbaa !7
  %98 = sub nsw i32 0, %97
  %99 = sext i32 %98 to i64
  store i64 %99, ptr %10, align 8, !tbaa !11
  br label %100

100:                                              ; preds = %96, %90
  br label %102

101:                                              ; preds = %74
  store i32 -13, ptr %11, align 4, !tbaa !7
  br label %127

102:                                              ; preds = %100
  br label %103

103:                                              ; preds = %102, %73
  %104 = load ptr, ptr %5, align 8, !tbaa !3
  %105 = load i32, ptr %9, align 4, !tbaa !7
  %106 = zext i32 %105 to i64
  %107 = getelementptr inbounds nuw i8, ptr %104, i64 %106
  store ptr %107, ptr %12, align 8, !tbaa !13
  %108 = load ptr, ptr %12, align 8, !tbaa !13
  %109 = load i64, ptr %10, align 8, !tbaa !11
  %110 = call ptr @memchr(ptr noundef %108, i32 noundef 0, i64 noundef %109) #7
  store ptr %110, ptr %13, align 8, !tbaa !13
  %111 = load ptr, ptr %13, align 8, !tbaa !13
  %112 = icmp ne ptr %111, null
  br i1 %112, label %114, label %113

113:                                              ; preds = %103
  store i32 -8, ptr %11, align 4, !tbaa !7
  br label %127

114:                                              ; preds = %103
  %115 = load ptr, ptr %7, align 8, !tbaa !9
  %116 = icmp ne ptr %115, null
  br i1 %116, label %117, label %125

117:                                              ; preds = %114
  %118 = load ptr, ptr %13, align 8, !tbaa !13
  %119 = load ptr, ptr %12, align 8, !tbaa !13
  %120 = ptrtoint ptr %118 to i64
  %121 = ptrtoint ptr %119 to i64
  %122 = sub i64 %120, %121
  %123 = trunc i64 %122 to i32
  %124 = load ptr, ptr %7, align 8, !tbaa !9
  store i32 %123, ptr %124, align 4, !tbaa !7
  br label %125

125:                                              ; preds = %117, %114
  %126 = load ptr, ptr %12, align 8, !tbaa !13
  store ptr %126, ptr %4, align 8
  store i32 1, ptr %14, align 4
  br label %134

127:                                              ; preds = %113, %101, %89, %55, %43, %30, %25
  %128 = load ptr, ptr %7, align 8, !tbaa !9
  %129 = icmp ne ptr %128, null
  br i1 %129, label %130, label %133

130:                                              ; preds = %127
  %131 = load i32, ptr %11, align 4, !tbaa !7
  %132 = load ptr, ptr %7, align 8, !tbaa !9
  store i32 %131, ptr %132, align 4, !tbaa !7
  br label %133

133:                                              ; preds = %130, %127
  store ptr null, ptr %4, align 8
  store i32 1, ptr %14, align 4
  br label %134

134:                                              ; preds = %133, %125
  call void @llvm.lifetime.end.p0(i64 8, ptr %13) #6
  call void @llvm.lifetime.end.p0(i64 8, ptr %12) #6
  call void @llvm.lifetime.end.p0(i64 4, ptr %11) #6
  call void @llvm.lifetime.end.p0(i64 8, ptr %10) #6
  call void @llvm.lifetime.end.p0(i64 4, ptr %9) #6
  call void @llvm.lifetime.end.p0(i64 4, ptr %8) #6
  %135 = load ptr, ptr %4, align 8
  ret ptr %135
}