; Function Attrs: nounwind uwtable
define noundef ptr @fdt_get_string(ptr noundef %0, i32 noundef %1, ptr noundef writeonly captures(address_is_null) %2) local_unnamed_addr #0 {
  %4 = tail call i32 @fdt_ro_probe_(ptr noundef %0) #9
  %5 = getelementptr inbounds nuw i8, ptr %0, i64 12
  %6 = load i8, ptr %5, align 1, !tbaa !3
  %7 = zext i8 %6 to i32
  %8 = shl nuw i32 %7, 24
  %9 = getelementptr inbounds nuw i8, ptr %0, i64 13
  %10 = load i8, ptr %9, align 1, !tbaa !3
  %11 = zext i8 %10 to i32
  %12 = shl nuw nsw i32 %11, 16
  %13 = or disjoint i32 %12, %8
  %14 = getelementptr inbounds nuw i8, ptr %0, i64 14
  %15 = load i8, ptr %14, align 1, !tbaa !3
  %16 = zext i8 %15 to i32
  %17 = shl nuw nsw i32 %16, 8
  %18 = or disjoint i32 %13, %17
  %19 = getelementptr inbounds nuw i8, ptr %0, i64 15
  %20 = load i8, ptr %19, align 1, !tbaa !3
  %21 = zext i8 %20 to i32
  %22 = or disjoint i32 %18, %21
  %23 = add i32 %22, %1
  %24 = icmp slt i32 %4, 0
  br i1 %24, label %119, label %25

25:                                               ; preds = %3
  %.not = icmp ult i32 %23, %4
  br i1 %.not, label %26, label %119

26:                                               ; preds = %25
  %27 = sub nuw nsw i32 %4, %23
  %28 = load i8, ptr %0, align 1, !tbaa !3
  %29 = zext i8 %28 to i32
  %30 = shl nuw i32 %29, 24
  %31 = getelementptr inbounds nuw i8, ptr %0, i64 1
  %32 = load i8, ptr %31, align 1, !tbaa !3
  %33 = zext i8 %32 to i32
  %34 = shl nuw nsw i32 %33, 16
  %35 = or disjoint i32 %34, %30
  %36 = getelementptr inbounds nuw i8, ptr %0, i64 2
  %37 = load i8, ptr %36, align 1, !tbaa !3
  %38 = zext i8 %37 to i32
  %39 = shl nuw nsw i32 %38, 8
  %40 = or disjoint i32 %35, %39
  %41 = getelementptr inbounds nuw i8, ptr %0, i64 3
  %42 = load i8, ptr %41, align 1, !tbaa !3
  %43 = zext i8 %42 to i32
  %44 = or disjoint i32 %40, %43
  switch i32 %44, label %119 [
    i32 -804389139, label %45
    i32 804389138, label %88
  ]

45:                                               ; preds = %26
  %46 = icmp slt i32 %1, 0
  br i1 %46, label %119, label %47

47:                                               ; preds = %45
  %48 = getelementptr inbounds nuw i8, ptr %0, i64 20
  %49 = load i8, ptr %48, align 1, !tbaa !3
  %50 = zext i8 %49 to i32
  %51 = shl nuw i32 %50, 24
  %52 = getelementptr inbounds nuw i8, ptr %0, i64 21
  %53 = load i8, ptr %52, align 1, !tbaa !3
  %54 = zext i8 %53 to i32
  %55 = shl nuw nsw i32 %54, 16
  %56 = or disjoint i32 %55, %51
  %57 = getelementptr inbounds nuw i8, ptr %0, i64 22
  %58 = load i8, ptr %57, align 1, !tbaa !3
  %59 = zext i8 %58 to i32
  %60 = shl nuw nsw i32 %59, 8
  %61 = or disjoint i32 %56, %60
  %62 = getelementptr inbounds nuw i8, ptr %0, i64 23
  %63 = load i8, ptr %62, align 1, !tbaa !3
  %64 = zext i8 %63 to i32
  %65 = or disjoint i32 %61, %64
  %66 = icmp ugt i32 %65, 16
  br i1 %66, label %67, label %109

67:                                               ; preds = %47
  %68 = getelementptr inbounds nuw i8, ptr %0, i64 32
  %69 = load i8, ptr %68, align 1, !tbaa !3
  %70 = zext i8 %69 to i32
  %71 = shl nuw i32 %70, 24
  %72 = getelementptr inbounds nuw i8, ptr %0, i64 33
  %73 = load i8, ptr %72, align 1, !tbaa !3
  %74 = zext i8 %73 to i32
  %75 = shl nuw nsw i32 %74, 16
  %76 = or disjoint i32 %75, %71
  %77 = getelementptr inbounds nuw i8, ptr %0, i64 34
  %78 = load i8, ptr %77, align 1, !tbaa !3
  %79 = zext i8 %78 to i32
  %80 = shl nuw nsw i32 %79, 8
  %81 = or disjoint i32 %76, %80
  %82 = getelementptr inbounds nuw i8, ptr %0, i64 35
  %83 = load i8, ptr %82, align 1, !tbaa !3
  %84 = zext i8 %83 to i32
  %85 = or disjoint i32 %81, %84
  %.not50 = icmp ult i32 %1, %85
  br i1 %.not50, label %86, label %119

86:                                               ; preds = %67
  %87 = sub nuw i32 %85, %1
  %spec.select54 = tail call i32 @llvm.umin.i32(i32 %87, i32 %27)
  br label %109

88:                                               ; preds = %26
  %89 = icmp sgt i32 %1, -1
  br i1 %89, label %119, label %90

90:                                               ; preds = %88
  %91 = getelementptr inbounds nuw i8, ptr %0, i64 32
  %92 = load i8, ptr %91, align 1, !tbaa !3
  %.neg60 = sub i8 0, %92
  %.neg60.z = zext i8 %.neg60 to i32
  %.neg55 = shl nuw i32 %.neg60.z, 24
  %93 = getelementptr inbounds nuw i8, ptr %0, i64 33
  %94 = load i8, ptr %93, align 1, !tbaa !3
  %95 = zext i8 %94 to i32
  %96 = shl nuw nsw i32 %95, 16
  %97 = getelementptr inbounds nuw i8, ptr %0, i64 34
  %98 = load i8, ptr %97, align 1, !tbaa !3
  %99 = zext i8 %98 to i32
  %100 = shl nuw nsw i32 %99, 8
  %101 = or disjoint i32 %100, %96
  %102 = getelementptr inbounds nuw i8, ptr %0, i64 35
  %103 = load i8, ptr %102, align 1, !tbaa !3
  %104 = zext i8 %103 to i32
  %105 = or disjoint i32 %101, %104
  %.neg59 = sub i32 %.neg55, %105
  %106 = icmp ult i32 %1, %.neg59
  br i1 %106, label %119, label %107

107:                                              ; preds = %90
  %108 = sub nsw i32 0, %1
  %spec.select = tail call i32 @llvm.umin.i32(i32 %27, i32 %108)
  br label %109

109:                                              ; preds = %86, %107, %47
  %.039.in = phi i32 [ %27, %47 ], [ %spec.select, %107 ], [ %spec.select54, %86 ]
  %.039 = zext nneg i32 %.039.in to i64
  %110 = zext nneg i32 %23 to i64
  %111 = getelementptr inbounds nuw i8, ptr %0, i64 %110
  %112 = tail call ptr @memchr(ptr noundef nonnull %111, i32 noundef 0, i64 noundef %.039) #10
  %.not51 = icmp eq ptr %112, null
  br i1 %.not51, label %119, label %113

113:                                              ; preds = %109
  %.not52 = icmp eq ptr %2, null
  br i1 %.not52, label %120, label %114

114:                                              ; preds = %113
  %115 = ptrtoint ptr %112 to i64
  %116 = ptrtoint ptr %111 to i64
  %117 = sub i64 %115, %116
  %118 = trunc i64 %117 to i32
  br label %.sink.split

119:                                              ; preds = %26, %109, %88, %90, %67, %45, %25, %3
  %.040 = phi i32 [ %4, %3 ], [ -4, %25 ], [ -4, %45 ], [ -4, %67 ], [ -4, %88 ], [ -4, %90 ], [ -8, %109 ], [ -13, %26 ]
  %.not53 = icmp eq ptr %2, null
  br i1 %.not53, label %120, label %.sink.split

.sink.split:                                      ; preds = %119, %114
  %.040.sink = phi i32 [ %118, %114 ], [ %.040, %119 ]
  %.0.ph = phi ptr [ %111, %114 ], [ null, %119 ]
  store i32 %.040.sink, ptr %2, align 4, !tbaa !6
  br label %120

120:                                              ; preds = %.sink.split, %119, %113
  %.0 = phi ptr [ %111, %113 ], [ null, %119 ], [ %.0.ph, %.sink.split ]
  ret ptr %.0
}